; Function Attrs: nounwind uwtable
define void @Bus_SclCheckSortedFanout(ptr noundef readonly captures(none) %0) local_unnamed_addr #0 {
  %2 = getelementptr i8, ptr %0, i64 4
  %.val = load i32, ptr %2, align 4, !tbaa !42
  %3 = icmp sgt i32 %.val, 1
  br i1 %3, label %.lr.ph, label %.loopexit

.lr.ph:                                           ; preds = %1
  %4 = add nsw i32 %.val, -1
  %5 = getelementptr i8, ptr %0, i64 8
  %.val10 = load ptr, ptr %5, align 8, !tbaa !43
  %wide.trip.count = zext nneg i32 %4 to i64
  %.pre = load ptr, ptr %.val10, align 8, !tbaa !44
  %.val23.i.pre = load ptr, ptr %.pre, align 8, !tbaa !48
  %.phi.trans.insert = getelementptr i8, ptr %.pre, i64 16
  %.val24.i.pre = load i32, ptr %.phi.trans.insert, align 8, !tbaa !51
  %.phi.trans.insert21 = getelementptr i8, ptr %.val23.i.pre, i64 360
  %.val23.val.i.pre = load ptr, ptr %.phi.trans.insert21, align 8, !tbaa !74
  %.phi.trans.insert23 = getelementptr i8, ptr %.val23.val.i.pre, i64 64
  %.val23.val.val.i.pre = load ptr, ptr %.phi.trans.insert23, align 8, !tbaa !70
  %.phi.trans.insert25 = getelementptr i8, ptr %.val23.val.val.i.pre, i64 8
  %.val23.val.val.val.i.pre = load ptr, ptr %.phi.trans.insert25, align 8, !tbaa !68
  %.phi.trans.insert27 = sext i32 %.val24.i.pre to i64
  %.phi.trans.insert28 = getelementptr inbounds float, ptr %.val23.val.val.val.i.pre, i64 %.phi.trans.insert27
  %.pre29 = load float, ptr %.phi.trans.insert28, align 4, !tbaa !73
  br label %6

6:                                                ; preds = %.lr.ph, %Bus_SclCompareFanouts.exit
  %7 = phi float [ %.pre29, %.lr.ph ], [ %17, %Bus_SclCompareFanouts.exit ]
  %.val23.val.i = phi ptr [ %.val23.val.i.pre, %.lr.ph ], [ %.val21.val.i, %Bus_SclCompareFanouts.exit ]
  %.val24.i = phi i32 [ %.val24.i.pre, %.lr.ph ], [ %.val22.i, %Bus_SclCompareFanouts.exit ]
  %indvars.iv = phi i64 [ 0, %.lr.ph ], [ %indvars.iv.next, %Bus_SclCompareFanouts.exit ]
  %indvars.iv.next = add nuw nsw i64 %indvars.iv, 1
  %8 = getelementptr inbounds nuw ptr, ptr %.val10, i64 %indvars.iv.next
  %9 = load ptr, ptr %8, align 8, !tbaa !44
  %10 = sext i32 %.val24.i to i64
  %.val21.i = load ptr, ptr %9, align 8, !tbaa !48
  %11 = getelementptr i8, ptr %9, i64 16
  %.val22.i = load i32, ptr %11, align 8, !tbaa !51
  %12 = getelementptr i8, ptr %.val21.i, i64 360
  %.val21.val.i = load ptr, ptr %12, align 8, !tbaa !74
  %13 = getelementptr i8, ptr %.val21.val.i, i64 64
  %.val21.val.val.i = load ptr, ptr %13, align 8, !tbaa !70
  %14 = getelementptr i8, ptr %.val21.val.val.i, i64 8
  %.val21.val.val.val.i = load ptr, ptr %14, align 8, !tbaa !68
  %15 = sext i32 %.val22.i to i64
  %16 = getelementptr inbounds float, ptr %.val21.val.val.val.i, i64 %15
  %17 = load float, ptr %16, align 4, !tbaa !73
  %18 = fcmp olt float %7, %17
  br i1 %18, label %Bus_SclCompareFanouts.exit, label %19

19:                                               ; preds = %6
  %20 = fcmp ogt float %7, %17
  br i1 %20, label %select.unfold, label %21

21:                                               ; preds = %19
  %22 = getelementptr i8, ptr %.val23.val.i, i64 56
  %.val15.val.val.i = load ptr, ptr %22, align 8, !tbaa !69
  %23 = getelementptr i8, ptr %.val15.val.val.i, i64 8
  %.val15.val.val.val.i = load ptr, ptr %23, align 8, !tbaa !68
  %24 = getelementptr inbounds float, ptr %.val15.val.val.val.i, i64 %10
  %25 = load float, ptr %24, align 4, !tbaa !73
  %26 = getelementptr i8, ptr %.val21.val.i, i64 56
  %.val13.val.val.i = load ptr, ptr %26, align 8, !tbaa !69
  %27 = getelementptr i8, ptr %.val13.val.val.i, i64 8
  %.val13.val.val.val.i = load ptr, ptr %27, align 8, !tbaa !68
  %28 = getelementptr inbounds float, ptr %.val13.val.val.val.i, i64 %15
  %29 = load float, ptr %28, align 4, !tbaa !73
  %or.cond = fcmp olt float %25, %29
  br i1 %or.cond, label %select.unfold, label %Bus_SclCompareFanouts.exit

Bus_SclCompareFanouts.exit:                       ; preds = %6, %21
  %exitcond.not = icmp eq i64 %indvars.iv.next, %wide.trip.count
  br i1 %exitcond.not, label %.loopexit, label %6, !llvm.loop !102

select.unfold:                                    ; preds = %21, %19
  %30 = trunc nuw nsw i64 %indvars.iv.next to i32
  %31 = trunc nuw nsw i64 %indvars.iv to i32
  %32 = tail call i32 (ptr, ...) @printf(ptr noundef nonnull dereferenceable(1) @.str.9, i32 noundef %31, i32 noundef %30)
  tail call void @Abc_NtkPrintFanoutProfileVec(ptr noundef null, ptr noundef nonnull %0)
  br label %.loopexit

.loopexit:                                        ; preds = %Bus_SclCompareFanouts.exit, %1, %select.unfold
  ret void
}